MPASM 5.84                        HAFTA2.ASM   11-5-2019  1:19:26         PAGE  1


LOC  OBJECT CODE     LINE SOURCE TEXT
  VALUE

                      00001 ;******************************************************************************
                      00002 ;*** MIKROISLEMCILER DERSI 2. HAFTA ODEVI 
                      00003 ;*** 170260101 - Mert INCIDELEN
                      00004 ;******************************************************************************
                      00005 
                      00006 ;Gungor Hoca Kodlama Sablonu
                      00007         
Warning[205]: Found directive in column 1. (list)
                      00008 list            p=16f877A
                      00009 #include        <p16f877A.inc>
                      00001         LIST
                      00002 
                      00003 ;==========================================================================
                      00004 ; Build date : Mar 17 2019
                      00005 ;  MPASM PIC16F877A processor include
                      00006 ; 
                      00007 ;  (c) Copyright 1999-2019 Microchip Technology, All rights reserved
                      00008 ;==========================================================================
                      00009 
                      00567         LIST
                      00010         
Warning[205]: Found directive in column 1. (__CONFIG)
2007   3F31           00011 __CONFIG H'3F31'
                      00012         
                      00013 ;******************************************************************************
                      00014 ;Degiskenler
                      00015 
  00000020            00016 GECIKME1        EQU     0x20    ;Gecikme 1. Dongu Degiskeni
  00000021            00017 GECIKME2        EQU     0x21    ;Gecikme 2. Dongu Degiskeni
  00000022            00018 GECIKME3        EQU     0x22    ;Gecikme 3. Dongu Degiskeni
  00000023            00019 GECIKME4        EQU     0x23    ;Gecikme 2. Dongu Degiskeni
  00000024            00020 GECIKME5        EQU     0x24    ;Gecikme 3. Dongu Degiskeni
  00000025            00021 SECME           EQU     0x25    ;Secme Bilgisini Tutma: 
  00000026            00022 BAS.B           EQU     0x26
  00000027            00023 BAS.C           EQU     0x27
  00000028            00024 ORTA.B          EQU     0x28
  00000029            00025 ORTA.C          EQU     0x29
  00000030            00026 SON.B           EQU     0x30
  00000031            00027 SON.C           EQU     0x31
                      00028 
                      00029 ;******************************************************************************
                      00030                 
Warning[205]: Found directive in column 1. (ORG)
                      00031 ORG     0x000                   ; Baslama Vektoru
Warning[203]: Found opcode in column 1. (nop)
0000   0000           00032 nop
Warning[203]: Found opcode in column 1. (goto)
0001   2???           00033 goto    BASLA                   ; BASLA Etiketine Git
                      00034 
                      00035 ;******************************************************************************
                      00036 ;Gecikme Alt Programi           
                      00037 
0002                  00038 GECIKME                         
MPASM 5.84                        HAFTA2.ASM   11-5-2019  1:19:26         PAGE  2


LOC  OBJECT CODE     LINE SOURCE TEXT
  VALUE

0002   3008           00039         MOVLW   0x08
0003   00A0           00040         MOVWF   GECIKME1        
                      00041         
0004   3015           00042         MOVLW   0x15
0005   00A1           00043         MOVWF   GECIKME2
0006   3002           00044         MOVLW   0x02
0007   00A2           00045         MOVWF   GECIKME3
                      00046 
Warning[207]: Found label after column 1. (DONGU1)
0008                  00047     DONGU1
0008   0BA0           00048         DECFSZ  GECIKME1,1
0009   2???           00049         GOTO    $+2
000A   0BA1           00050         DECFSZ  GECIKME2,1
000B   2???           00051         GOTO    $+2
000C   0BA2           00052         DECFSZ  GECIKME3,1
000D   2???           00053         GOTO    DONGU1
000E   0000           00054         NOP
000F   0000           00055         NOP
0010   0000           00056         NOP     
0011   0008           00057         RETURN
                      00058         
0012                  00059 GGECIKME                                ; (herbir komut 4mhz de 1mikrosn) = 1 sn GEC?KME (yakla??k)
0012   30E7           00060         MOVLW   0xE7
0013   00A2           00061         MOVWF   GECIKME3
0014   3004           00062         MOVLW   0x04
0015   00A3           00063         MOVWF   GECIKME4
0016                  00064 DONGU2
0016   0BA2           00065         DECFSZ  GECIKME3,1
0017   2???           00066         GOTO    $+2
0018   0BA3           00067         DECFSZ  GECIKME4, 1
0019   2???           00068         GOTO    DONGU2
                      00069 
001A   0000           00070         NOP
001B   0000           00071         NOP     
001C   0008           00072         RETURN
                      00073 
                      00074 ;******************************************************************************
                      00075 ;Dondurme Alt Programlari
                      00076 
001D                  00077 B.YAK
                      00078         ;SECME 000 DURUMU
001D   1825           00079         BTFSC SECME,0
001E   2???           00080         GOTO $+2
001F   18A5           00081         BTFSC SECME,1
0020   2???           00082         GOTO $+2
0021   1925           00083         BTFSC SECME,2
0022   2???           00084         GOTO $+2
0023   1406           00085         BSF PORTB,0
                      00086         
                      00087         ;SECME 001 DURUMU
0024   1C25           00088         BTFSS SECME,0
0025   2???           00089         GOTO $+2
0026   18A5           00090         BTFSC SECME,1
MPASM 5.84                        HAFTA2.ASM   11-5-2019  1:19:26         PAGE  3


LOC  OBJECT CODE     LINE SOURCE TEXT
  VALUE

0027   2???           00091         GOTO $+2
0028   1925           00092         BTFSC SECME,2
0029   2???           00093         GOTO $+2
002A   1486           00094         BSF PORTB,1
                      00095         
                      00096         ;SECME 010 DURUMU
002B   1825           00097         BTFSC SECME,0
002C   2???           00098         GOTO $+2
002D   1CA5           00099         BTFSS SECME,1
002E   2???           00100         GOTO $+2
002F   1925           00101         BTFSC SECME,2
0030   2???           00102         GOTO $+2
0031   1506           00103         BSF PORTB,2
                      00104         
                      00105         ;SECME 011 DURUMU
0032   1C25           00106         BTFSS SECME,0
0033   2???           00107         GOTO $+2
0034   1CA5           00108         BTFSS SECME,1
0035   2???           00109         GOTO $+2
0036   1925           00110         BTFSC SECME,2
0037   2???           00111         GOTO $+2
0038   1586           00112         BSF PORTB,3
                      00113         
                      00114         ;SECME 100 DURUMU
0039   1825           00115         BTFSC SECME,0
003A   2???           00116         GOTO $+2
003B   18A5           00117         BTFSC SECME,1
003C   2???           00118         GOTO $+2
003D   1D25           00119         BTFSS SECME,2
003E   2???           00120         GOTO $+2
003F   1606           00121         BSF PORTB,4
                      00122         
                      00123         ;SECME 101 DURUMU
0040   1C25           00124         BTFSS SECME,0
0041   2???           00125         GOTO $+2
0042   18A5           00126         BTFSC SECME,1
0043   2???           00127         GOTO $+2
0044   1D25           00128         BTFSS SECME,2
0045   2???           00129         GOTO $+2
0046   1686           00130         BSF PORTB,5
                      00131         
                      00132         ;SECME 110 DURUMU
0047   1825           00133         BTFSC SECME,0
0048   2???           00134         GOTO $+2
0049   1CA5           00135         BTFSS SECME,1
004A   2???           00136         GOTO $+2
004B   1D25           00137         BTFSS SECME,2
004C   2???           00138         GOTO $+2
004D   1706           00139         BSF PORTB,6
                      00140         
004E   0008           00141         RETURN
                      00142 
004F                  00143 C.YAK
MPASM 5.84                        HAFTA2.ASM   11-5-2019  1:19:26         PAGE  4


LOC  OBJECT CODE     LINE SOURCE TEXT
  VALUE

                      00144         ;SECME 000 DURUMU
004F   1825           00145         BTFSC SECME,0
0050   2???           00146         GOTO $+2
0051   18A5           00147         BTFSC SECME,1
0052   2???           00148         GOTO $+2
0053   1925           00149         BTFSC SECME,2
0054   2???           00150         GOTO $+2
0055   1407           00151         BSF PORTC,0
                      00152         
                      00153         ;SECME 001 DURUMU
0056   1C25           00154         BTFSS SECME,0
0057   2???           00155         GOTO $+2
0058   18A5           00156         BTFSC SECME,1
0059   2???           00157         GOTO $+2
005A   1925           00158         BTFSC SECME,2
005B   2???           00159         GOTO $+2
005C   1487           00160         BSF PORTC,1
                      00161         
                      00162         ;SECME 010 DURUMU
005D   1825           00163         BTFSC SECME,0
005E   2???           00164         GOTO $+2
005F   1CA5           00165         BTFSS SECME,1
0060   2???           00166         GOTO $+2
0061   1925           00167         BTFSC SECME,2
0062   2???           00168         GOTO $+2
0063   1507           00169         BSF PORTC,2
                      00170         
                      00171         ;SECME 011 DURUMU
0064   1C25           00172         BTFSS SECME,0
0065   2???           00173         GOTO $+2
0066   1CA5           00174         BTFSS SECME,1
0067   2???           00175         GOTO $+2
0068   1925           00176         BTFSC SECME,2
0069   2???           00177         GOTO $+2
006A   1587           00178         BSF PORTC,3
                      00179         
                      00180         ;SECME 100 DURUMU
006B   1825           00181         BTFSC SECME,0
006C   2???           00182         GOTO $+2
006D   18A5           00183         BTFSC SECME,1
006E   2???           00184         GOTO $+2
006F   1D25           00185         BTFSS SECME,2
0070   2???           00186         GOTO $+2
0071   1607           00187         BSF PORTC,4
                      00188         
0072   0008           00189         RETURN  
                      00190 
0073                  00191 B.SONDUR
                      00192         ;SECME 000 DURUMU
0073   1825           00193         BTFSC SECME,0
0074   2???           00194         GOTO $+2
0075   18A5           00195         BTFSC SECME,1
0076   2???           00196         GOTO $+2
MPASM 5.84                        HAFTA2.ASM   11-5-2019  1:19:26         PAGE  5


LOC  OBJECT CODE     LINE SOURCE TEXT
  VALUE

0077   1925           00197         BTFSC SECME,2
0078   2???           00198         GOTO $+2
0079   1006           00199         BCF PORTB,0
                      00200         
                      00201         ;SECME 001 DURUMU
007A   1C25           00202         BTFSS SECME,0
007B   2???           00203         GOTO $+2
007C   18A5           00204         BTFSC SECME,1
007D   2???           00205         GOTO $+2
007E   1925           00206         BTFSC SECME,2
007F   2???           00207         GOTO $+2
0080   1086           00208         BCF PORTB,1
                      00209         
                      00210         ;SECME 010 DURUMU
0081   1825           00211         BTFSC SECME,0
0082   2???           00212         GOTO $+2
0083   1CA5           00213         BTFSS SECME,1
0084   2???           00214         GOTO $+2
0085   1925           00215         BTFSC SECME,2
0086   2???           00216         GOTO $+2
0087   1106           00217         BCF PORTB,2
                      00218         
                      00219         ;SECME 011 DURUMU
0088   1C25           00220         BTFSS SECME,0
0089   2???           00221         GOTO $+2
008A   1CA5           00222         BTFSS SECME,1
008B   2???           00223         GOTO $+2
008C   1925           00224         BTFSC SECME,2
008D   2???           00225         GOTO $+2
008E   1186           00226         BCF PORTB,3
                      00227         
                      00228         ;SECME 100 DURUMU
008F   1825           00229         BTFSC SECME,0
0090   2???           00230         GOTO $+2
0091   18A5           00231         BTFSC SECME,1
0092   2???           00232         GOTO $+2
0093   1D25           00233         BTFSS SECME,2
0094   2???           00234         GOTO $+2
0095   1206           00235         BCF PORTB,4
                      00236         
                      00237         ;SECME 101 DURUMU
0096   1C25           00238         BTFSS SECME,0
0097   2???           00239         GOTO $+2
0098   18A5           00240         BTFSC SECME,1
0099   2???           00241         GOTO $+2
009A   1D25           00242         BTFSS SECME,2
009B   2???           00243         GOTO $+2
009C   1286           00244         BCF PORTB,5
                      00245         
                      00246         ;SECME 110 DURUMU
009D   1825           00247         BTFSC SECME,0
009E   2???           00248         GOTO $+2
009F   1CA5           00249         BTFSS SECME,1
MPASM 5.84                        HAFTA2.ASM   11-5-2019  1:19:26         PAGE  6


LOC  OBJECT CODE     LINE SOURCE TEXT
  VALUE

00A0   2???           00250         GOTO $+2
00A1   1D25           00251         BTFSS SECME,2
00A2   2???           00252         GOTO $+2
00A3   1306           00253         BCF PORTB,6
                      00254         
00A4   0008           00255         RETURN
                      00256         
00A5                  00257 C.SONDUR
                      00258         ;SECME 000 DURUMU
00A5   1825           00259         BTFSC SECME,0
00A6   2???           00260         GOTO $+2
00A7   18A5           00261         BTFSC SECME,1
00A8   2???           00262         GOTO $+2
00A9   1925           00263         BTFSC SECME,2
00AA   2???           00264         GOTO $+2
00AB   1007           00265         BCF PORTC,0
                      00266         
                      00267         ;SECME 001 DURUMU
00AC   1C25           00268         BTFSS SECME,0
00AD   2???           00269         GOTO $+2
00AE   18A5           00270         BTFSC SECME,1
00AF   2???           00271         GOTO $+2
00B0   1925           00272         BTFSC SECME,2
00B1   2???           00273         GOTO $+2
00B2   1087           00274         BCF PORTC,1
                      00275         
                      00276         ;SECME 010 DURUMU
00B3   1825           00277         BTFSC SECME,0
00B4   2???           00278         GOTO $+2
00B5   1CA5           00279         BTFSS SECME,1
00B6   2???           00280         GOTO $+2
00B7   1925           00281         BTFSC SECME,2
00B8   2???           00282         GOTO $+2
00B9   1107           00283         BCF PORTC,2
                      00284         
                      00285         ;SECME 011 DURUMU
00BA   1C25           00286         BTFSS SECME,0
00BB   2???           00287         GOTO $+2
00BC   1CA5           00288         BTFSS SECME,1
00BD   2???           00289         GOTO $+2
00BE   1925           00290         BTFSC SECME,2
00BF   2???           00291         GOTO $+2
00C0   1187           00292         BCF PORTC,3
                      00293         
                      00294         ;SECME 100 DURUMU
00C1   1825           00295         BTFSC SECME,0
00C2   2???           00296         GOTO $+2
00C3   18A5           00297         BTFSC SECME,1
00C4   2???           00298         GOTO $+2
00C5   1D25           00299         BTFSS SECME,2
00C6   2???           00300         GOTO $+2
00C7   1207           00301         BCF PORTC,4
                      00302         
MPASM 5.84                        HAFTA2.ASM   11-5-2019  1:19:26         PAGE  7


LOC  OBJECT CODE     LINE SOURCE TEXT
  VALUE

                      00303         ;SECME 101 DURUMU
00C8   1C25           00304         BTFSS SECME,0
00C9   2???           00305         GOTO $+2
00CA   18A5           00306         BTFSC SECME,1
00CB   2???           00307         GOTO $+2
00CC   1D25           00308         BTFSS SECME,2
00CD   2???           00309         GOTO $+2
00CE   1287           00310         BCF PORTC,5
                      00311         
                      00312         ;SECME 110 DURUMU
00CF   1825           00313         BTFSC SECME,0
00D0   2???           00314         GOTO $+2
00D1   1CA5           00315         BTFSS SECME,1
00D2   2???           00316         GOTO $+2
00D3   1D25           00317         BTFSS SECME,2
00D4   2???           00318         GOTO $+2
00D5   1307           00319         BCF PORTC,6
                      00320         
00D6   0008           00321         RETURN
                      00322         
00D7                  00323 GOSTER
00D7   0826           00324         MOVF BAS.B,0 ;bas.B degerini getir
00D8   00A5           00325         MOVWF   SECME
00D9   2???           00326         CALL B.YAK
00DA   0827           00327         MOVF BAS.C,0 ;bas.C degerini getir
00DB   00A5           00328         MOVWF   SECME
00DC   2???           00329         CALL C.YAK
00DD   2???           00330         CALL GGECIKME
                      00331         
00DE   0826           00332         MOVF BAS.B,0 ;bas.B degerini getir
00DF   00A5           00333         MOVWF   SECME
00E0   2???           00334         CALL B.SONDUR
00E1   0827           00335         MOVF BAS.C,0 ;bas.C degerini getir
00E2   00A5           00336         MOVWF   SECME
00E3   2???           00337         CALL C.SONDUR
                      00338         
00E4   0828           00339         MOVF ORTA.B,0 ;ORTA.B degerini getir
00E5   00A5           00340         MOVWF   SECME
00E6   2???           00341         CALL B.YAK
00E7   0829           00342         MOVF ORTA.C,0 ;bas.C degerini getir
00E8   00A5           00343         MOVWF   SECME
00E9   2???           00344         CALL C.YAK
00EA   2???           00345         CALL GGECIKME
                      00346         
00EB   0828           00347         MOVF ORTA.B,0 ;ORTA.B degerini getir
00EC   00A5           00348         MOVWF   SECME
00ED   2???           00349         CALL B.SONDUR
00EE   0829           00350         MOVF ORTA.C,0 ;bas.C degerini getir
00EF   00A5           00351         MOVWF   SECME
00F0   2???           00352         CALL C.SONDUR
00F1   0830           00353         MOVF SON.B,0 ;SON.B degerini getir
00F2   00A5           00354         MOVWF   SECME
00F3   2???           00355         CALL B.YAK
MPASM 5.84                        HAFTA2.ASM   11-5-2019  1:19:26         PAGE  8


LOC  OBJECT CODE     LINE SOURCE TEXT
  VALUE

00F4   0831           00356         MOVF SON.C,0 ;SON.C degerini getir
00F5   00A5           00357         MOVWF   SECME
00F6   2???           00358         CALL C.YAK
00F7   2???           00359         CALL GGECIKME
00F8   0830           00360         MOVF SON.B,0 ;SON.B degerini getir
00F9   00A5           00361         MOVWF   SECME
00FA   2???           00362         CALL B.SONDUR
00FB   0831           00363         MOVF SON.C,0 ;SON.C degerini getir
00FC   00A5           00364         MOVWF   SECME
00FD   2???           00365         CALL C.SONDUR
00FE   0008           00366         RETURN
                      00367         
                      00368         
                      00369 ;**********************************************************
                      00370         
                      00371 
                      00372 
00FF                  00373 BAS.B.ARTTIR
                      00374         
00FF   0AA6           00375         INCF BAS.B,1
                      00376         
0100   1C26           00377         BTFSS BAS.B,0
0101   2???           00378         GOTO $+2
0102   1CA6           00379         BTFSS BAS.B,1
0103   2???           00380         GOTO $+2
0104   1D26           00381         BTFSS BAS.B,2
0105   2???           00382         GOTO $+2
0106   01A6           00383         CLRF BAS.B
                      00384         
0107   0008           00385         RETURN
                      00386         
0108                  00387 BAS.B.AZALT
                      00388         
                      00389 
0108   3007           00390         MOVLW   b'00000111'
0109   1826           00391         BTFSC BAS.B,0
010A   2???           00392         GOTO $+2
010B   18A6           00393         BTFSC BAS.B,1
010C   2???           00394         GOTO $+2
010D   1926           00395         BTFSC BAS.B,2
010E   2???           00396         GOTO $+2
010F   00A6           00397         MOVWF   BAS.B
                      00398         
0110   03A6           00399         DECF BAS.B,1
                      00400         
0111   0008           00401         RETURN
                      00402         
0112                  00403 BAS.C.ARTTIR
                      00404         
0112   0AA7           00405         INCF BAS.C,1
                      00406         
0113   1C27           00407         BTFSS BAS.C,0
0114   2???           00408         GOTO $+2
MPASM 5.84                        HAFTA2.ASM   11-5-2019  1:19:26         PAGE  9


LOC  OBJECT CODE     LINE SOURCE TEXT
  VALUE

0115   18A7           00409         BTFSC BAS.C,1
0116   2???           00410         GOTO $+2
0117   1D27           00411         BTFSS BAS.C,2
0118   2???           00412         GOTO $+2
0119   01A7           00413         CLRF BAS.C
                      00414         
011A   0008           00415         RETURN
                      00416         
011B                  00417 BAS.C.AZALT
                      00418         
                      00419 
011B   3005           00420         MOVLW   b'00000101'
011C   1827           00421         BTFSC BAS.C,0
011D   2???           00422         GOTO $+2
011E   18A7           00423         BTFSC BAS.C,1
011F   2???           00424         GOTO $+2
0120   1927           00425         BTFSC BAS.C,2
0121   2???           00426         GOTO $+2
0122   00A7           00427         MOVWF   BAS.C
                      00428         
0123   03A7           00429         DECF BAS.C,1
                      00430         
0124   0008           00431         RETURN
                      00432                 
                      00433         
                      00434 ;******************************************************************************
                      00435 ;Baslangic
                      00436         
0125                  00437 BASLA
                      00438         
                      00439         ;en agirliksiz set edildi 01.banka gecildi
0125   1683           00440         BSF     STATUS,RP0
                      00441         
                      00442         ;varsayilan adc pasifleme
0126   3006           00443         MOVLW   0X06    
Message[302]: Register in operand not in bank 0.  Ensure that bank bits are correct.
0127   009F           00444         MOVWF   ADCON1
                      00445         
                      00446         ; port a'nin giris cikislarini ayarlama
0128   300F           00447         MOVLW   b'00001111'
Message[302]: Register in operand not in bank 0.  Ensure that bank bits are correct.
0129   0085           00448         MOVWF   TRISA           
                      00449         
                      00450         ; port b'nin giris cikislarini ayarlama
012A   3000           00451         MOVLW   0X00    
Message[302]: Register in operand not in bank 0.  Ensure that bank bits are correct.
012B   0086           00452         MOVWF   TRISB               
                      00453         
                      00454         ; port c'nin giris cikislarini ayarlama
012C   3000           00455         MOVLW   0X00
Message[302]: Register in operand not in bank 0.  Ensure that bank bits are correct.
012D   0087           00456         MOVWF   TRISC   
                      00457         
MPASM 5.84                        HAFTA2.ASM   11-5-2019  1:19:26         PAGE 10


LOC  OBJECT CODE     LINE SOURCE TEXT
  VALUE

                      00458         ;en agirliksiz clear edildi portlar icin 00.banka gecildi
012E   1283           00459         BCF     STATUS,RP0      
                      00460         
                      00461         ;port a, b ve c icini temizleme
012F   0185           00462         CLRF    PORTA
0130   0186           00463         CLRF    PORTB
0131   0187           00464         CLRF    PORTC
                      00465         
                      00466         ;pull-up oldugundan girislere 1 yukle
0132   300F           00467         MOVLW   b'00001111'         ; PORT A 'YI BASTA 00000000 YAP
0133   0085           00468         MOVWF   PORTA
                      00469 
                      00470 
                      00471             
0134                  00472 BASLANGIC
                      00473         
                      00474         ;konum ilk durum dikey (0) olarak ayarlama
                      00475         
0134   3002           00476         MOVLW   b'00000010'
0135   00A6           00477         MOVWF   BAS.B
0136   3003           00478         MOVLW   b'00000011'
0137   00A8           00479         MOVWF   ORTA.B
0138   3004           00480         MOVLW   b'00000100'
0139   00B0           00481         MOVWF   SON.B
                      00482         
013A   3002           00483         MOVLW   b'00000010'
013B   00A7           00484         MOVWF   BAS.C
013C   3002           00485         MOVLW   b'00000010'
013D   00A9           00486         MOVWF   ORTA.C
013E   3002           00487         MOVLW   b'00000010'
013F   00B1           00488         MOVWF   SON.C
                      00489         
0140   3000           00490         MOVLW   0x00
0141   00A5           00491         MOVWF   SECME
                      00492         
                      00493         ;baslangicta butonlari dinleme
Warning[207]: Found label after column 1. (DON)
0142                  00494         DON
0142   2???           00495         CALL GOSTER ;supurme ile gosterme
0143   1C05           00496         BTFSS   PORTA,0         
0144   2???           00497         GOTO    SAGA
0145   1C85           00498         BTFSS   PORTA,1         
0146   2???           00499         GOTO    ASAGI
0147   1D05           00500         BTFSS   PORTA,2 
0148   2???           00501         GOTO    YUKARI
0149   1D85           00502         BTFSS   PORTA,3 
014A   2???           00503         GOTO    SOLA
014B   2???           00504         GOTO DON
                      00505         
                      00506 ;******************************************************************************
                      00507 ;Butona basilma durumlari
                      00508 
014C                  00509 SAGA    
MPASM 5.84                        HAFTA2.ASM   11-5-2019  1:19:26         PAGE 11


LOC  OBJECT CODE     LINE SOURCE TEXT
  VALUE

014C   2???           00510         CALL GGECIKME
                      00511         
014D   0828           00512         MOVF ORTA.B,0 ;ORTA.B degerini getir
014E   00B0           00513         MOVWF   SON.B ;SON.B degeri olarak ayarla
                      00514         
014F   0829           00515         MOVF ORTA.C,0 ;ORTA.C degerini getir
0150   00B1           00516         MOVWF   SON.C ;SON.C degeri olarak ayarla
                      00517         
0151   0826           00518         MOVF BAS.B,0 ;BAS.B degerini getir
0152   00A8           00519         MOVWF   ORTA.B ;ORTA.B degeri olarak ayarla
                      00520         
0153   0827           00521         MOVF BAS.C,0 ;BAS.C degerini getir
0154   00A9           00522         MOVWF   ORTA.C ;ORTA.C degeri olarak ayarla
                      00523          
0155   2???           00524         CALL BAS.C.ARTTIR ;C degerini arttiriyoruz(saga)
                      00525         
Warning[207]: Found label after column 1. (DONME1)
0156                  00526         DONME1
0156   2???           00527             CALL GOSTER ;supurme ile gosterme
0157   2???           00528             CALL GOSTER ;supurme ile gosterme
0158   2???           00529             CALL GOSTER ;supurme ile gosterme
                      00530             ;portlari dinle
0159   1C05           00531             BTFSS       PORTA,0         
015A   2???           00532             GOTO        SAGA
015B   1C85           00533             BTFSS       PORTA,1         
015C   2???           00534             GOTO        ASAGI
015D   1D05           00535             BTFSS       PORTA,2 
015E   2???           00536             GOTO        YUKARI
015F   1D85           00537             BTFSS       PORTA,3 
0160   2???           00538             GOTO        SOLA
                      00539             ;;;;;;;;;;;;;;;
0161   2???           00540         GOTO DONME1
                      00541         
0162   2???           00542     GOTO SAGA
                      00543         
                      00544         
                      00545 
0163                  00546 ASAGI
0163   2???           00547     CALL GGECIKME
                      00548     
0164   0828           00549         MOVF ORTA.B,0 ;ORTA.B degerini getir
0165   00B0           00550         MOVWF   SON.B ;SON.B degeri olarak ayarla
                      00551         
0166   0829           00552         MOVF ORTA.C,0 ;ORTA.C degerini getir
0167   00B1           00553         MOVWF   SON.C ;SON.C degeri olarak ayarla
                      00554         
0168   0826           00555         MOVF BAS.B,0 ;BAS.B degerini getir
0169   00A8           00556         MOVWF   ORTA.B ;ORTA.B degeri olarak ayarla
                      00557         
016A   0827           00558         MOVF BAS.C,0 ;BAS.C degerini getir
016B   00A9           00559         MOVWF   ORTA.C ;ORTA.C degeri olarak ayarla
                      00560         
016C   2???           00561         CALL BAS.B.ARTTIR ; B degerini artt?r?yoruz(asagi)
MPASM 5.84                        HAFTA2.ASM   11-5-2019  1:19:26         PAGE 12


LOC  OBJECT CODE     LINE SOURCE TEXT
  VALUE

                      00562         
Warning[207]: Found label after column 1. (DONME2)
016D                  00563             DONME2
016D   2???           00564             CALL GOSTER ;supurme ile gosterme
016E   2???           00565             CALL GOSTER ;supurme ile gosterme
016F   2???           00566             CALL GOSTER ;supurme ile gosterme
                      00567             ;portlari dinle
0170   1C05           00568             BTFSS       PORTA,0         
0171   2???           00569             GOTO        SAGA
0172   1C85           00570             BTFSS       PORTA,1         
0173   2???           00571             GOTO        ASAGI
0174   1D05           00572             BTFSS       PORTA,2 
0175   2???           00573             GOTO        YUKARI
0176   1D85           00574             BTFSS       PORTA,3 
0177   2???           00575             GOTO        SOLA
                      00576             ;;;;;;;;;;;;;;;
0178   2???           00577             GOTO DONME2
                      00578         
Warning[203]: Found opcode in column 1. (GOTO)
0179   2???           00579 GOTO ASAGI
                      00580         
                      00581             
017A                  00582 YUKARI
                      00583             
017A   2???           00584         CALL GGECIKME
                      00585         
017B   0828           00586         MOVF ORTA.B,0 ;ORTA.B degerini getir
017C   00B0           00587         MOVWF   SON.B ;SON.B degeri olarak ayarla
                      00588         
017D   0829           00589         MOVF ORTA.C,0 ;ORTA.C degerini getir
017E   00B1           00590         MOVWF   SON.C ;SON.C degeri olarak ayarla
                      00591         
017F   0826           00592         MOVF BAS.B,0 ;BAS.B degerini getir
0180   00A8           00593         MOVWF   ORTA.B ;ORTA.B degeri olarak ayarla
                      00594         
0181   0827           00595         MOVF BAS.C,0 ;BAS.C degerini getir
0182   00A9           00596         MOVWF   ORTA.C ;ORTA.C degeri olarak ayarla
                      00597         
0183   2???           00598         CALL BAS.B.AZALT ; B degerini azaltiyoruz(yukari)
                      00599         
Warning[207]: Found label after column 1. (DONME3)
0184                  00600             DONME3
0184   2???           00601             CALL GOSTER ;supurme ile gosterme
0185   2???           00602             CALL GOSTER ;supurme ile gosterme
0186   2???           00603             CALL GOSTER ;supurme ile gosterme
                      00604             ;portlari dinle
0187   1C05           00605             BTFSS       PORTA,0         
0188   2???           00606             GOTO        SAGA
0189   1C85           00607             BTFSS       PORTA,1         
018A   2???           00608             GOTO        ASAGI
018B   1D05           00609             BTFSS       PORTA,2 
018C   2???           00610             GOTO        YUKARI
018D   1D85           00611             BTFSS       PORTA,3 
MPASM 5.84                        HAFTA2.ASM   11-5-2019  1:19:26         PAGE 13


LOC  OBJECT CODE     LINE SOURCE TEXT
  VALUE

018E   2???           00612             GOTO        SOLA
                      00613             ;;;;;;;;;;;;;;;
                      00614             
018F   2???           00615             GOTO DONME3
                      00616         
Warning[203]: Found opcode in column 1. (GOTO)
0190   2???           00617 GOTO YUKARI
                      00618             
0191                  00619 SOLA ;SOLA OTELEME ISLEMI
                      00620                 
0191   0828           00621         MOVF ORTA.B,0 ;ORTA.B degerini getir
0192   00B0           00622         MOVWF   SON.B ;SON.B degeri olarak ayarla
                      00623         
0193   0829           00624         MOVF ORTA.C,0 ;ORTA.C degerini getir
0194   00B1           00625         MOVWF   SON.C ;SON.C degeri olarak ayarla
                      00626         
0195   0826           00627         MOVF BAS.B,0 ;BAS.B degerini getir
0196   00A8           00628         MOVWF   ORTA.B ;ORTA.B degeri olarak ayarla
                      00629         
0197   0827           00630         MOVF BAS.C,0 ;BAS.C degerini getir
0198   00A9           00631         MOVWF   ORTA.C ;ORTA.C degeri olarak ayarla
                      00632         
0199   2???           00633         CALL BAS.C.AZALT ; C degerini azaltiyoruz(sola)
                      00634         
Warning[207]: Found label after column 1. (DONME4)
019A                  00635             DONME4
019A   2???           00636             CALL GOSTER ;supurme ile gosterme
019B   2???           00637             CALL GOSTER ;supurme ile gosterme
019C   2???           00638             CALL GOSTER ;supurme ile gosterme
                      00639             ;portlari dinle
019D   1C05           00640             BTFSS       PORTA,0         
019E   2???           00641             GOTO        SAGA
019F   1C85           00642             BTFSS       PORTA,1         
01A0   2???           00643             GOTO        ASAGI
01A1   1D05           00644             BTFSS       PORTA,2 
01A2   2???           00645             GOTO        YUKARI
01A3   1D85           00646             BTFSS       PORTA,3 
01A4   2???           00647             GOTO        SOLA
                      00648             ;;;;;;;;;;;;;;;
                      00649             
01A5   2???           00650             GOTO DONME4
                      00651         
Warning[203]: Found opcode in column 1. (GOTO)
01A6   2???           00652 GOTO SOLA
                      00653 
Warning[205]: Found directive in column 1. (END)
3F31                  00654 END                       ; Program sonu
MPASM 5.84                        HAFTA2.ASM   11-5-2019  1:19:26         PAGE 14


SYMBOL TABLE
  LABEL                             VALUE 

ACKDT                             00000005
ACKEN                             00000004
ACKSTAT                           00000006
ADCON0                            0000001F
ADCON1                            0000009F
ADCS0                             00000006
ADCS1                             00000007
ADCS2                             00000006
ADDEN                             00000003
ADFM                              00000007
ADIE                              00000006
ADIF                              00000006
ADON                              00000000
ADRESH                            0000001E
ADRESL                            0000009E
ASAGI                             00000163
B.SONDUR                          00000073
B.YAK                             0000001D
BAS.B                             00000026
BAS.B.ARTTIR                      000000FF
BAS.B.AZALT                       00000108
BAS.C                             00000027
BAS.C.ARTTIR                      00000112
BAS.C.AZALT                       0000011B
BASLA                             00000125
BASLANGIC                         00000134
BCLIE                             00000003
BCLIF                             00000003
BF                                00000000
BRGH                              00000002
C                                 00000000
C.SONDUR                          000000A5
C.YAK                             0000004F
C1INV                             00000004
C1OUT                             00000006
C2INV                             00000005
C2OUT                             00000007
CCP1CON                           00000017
CCP1IE                            00000002
CCP1IF                            00000002
CCP1M0                            00000000
CCP1M1                            00000001
CCP1M2                            00000002
CCP1M3                            00000003
CCP1X                             00000005
CCP1Y                             00000004
CCP2CON                           0000001D
CCP2IE                            00000000
CCP2IF                            00000000
CCP2M0                            00000000
CCP2M1                            00000001
CCP2M2                            00000002
CCP2M3                            00000003
MPASM 5.84                        HAFTA2.ASM   11-5-2019  1:19:26         PAGE 15


SYMBOL TABLE
  LABEL                             VALUE 

CCP2X                             00000005
CCP2Y                             00000004
CCPR1                             00000015
CCPR1H                            00000016
CCPR1L                            00000015
CCPR2                             0000001B
CCPR2H                            0000001C
CCPR2L                            0000001B
CHS0                              00000003
CHS1                              00000004
CHS2                              00000005
CIS                               00000003
CKE                               00000006
CKP                               00000004
CM0                               00000000
CM1                               00000001
CM2                               00000002
CMCON                             0000009C
CMIE                              00000006
CMIF                              00000006
CREN                              00000004
CSRC                              00000007
CVR0                              00000000
CVR1                              00000001
CVR2                              00000002
CVR3                              00000003
CVRCON                            0000009D
CVREN                             00000007
CVROE                             00000006
CVRR                              00000005
D                                 00000005
DATA_ADDRESS                      00000005
DC                                00000001
DON                               00000142
DONGU1                            00000008
DONGU2                            00000016
DONME1                            00000156
DONME2                            0000016D
DONME3                            00000184
DONME4                            0000019A
D_A                               00000005
D_NOT_A                           00000005
EEADR                             0000010D
EEADRH                            0000010F
EECON1                            0000018C
EECON2                            0000018D
EEDATA                            0000010C
EEDATH                            0000010E
EEIE                              00000004
EEIF                              00000004
EEPGD                             00000007
F                                 00000001
FERR                              00000002
MPASM 5.84                        HAFTA2.ASM   11-5-2019  1:19:26         PAGE 16


SYMBOL TABLE
  LABEL                             VALUE 

FSR                               00000004
GCEN                              00000007
GECIKME                           00000002
GECIKME1                          00000020
GECIKME2                          00000021
GECIKME3                          00000022
GECIKME4                          00000023
GECIKME5                          00000024
GGECIKME                          00000012
GIE                               00000007
GO                                00000002
GOSTER                            000000D7
GO_DONE                           00000002
GO_NOT_DONE                       00000002
I2C_DATA                          00000005
I2C_READ                          00000002
I2C_START                         00000003
I2C_STOP                          00000004
IBF                               00000007
IBOV                              00000005
INDF                              00000000
INTCON                            0000000B
INTE                              00000004
INTEDG                            00000006
INTF                              00000001
IRP                               00000007
NOT_A                             00000005
NOT_ADDRESS                       00000005
NOT_BO                            00000000
NOT_BOR                           00000000
NOT_DONE                          00000002
NOT_PD                            00000003
NOT_POR                           00000001
NOT_RBPU                          00000007
NOT_RC8                           00000006
NOT_T1SYNC                        00000002
NOT_TO                            00000004
NOT_TX8                           00000006
NOT_W                             00000002
NOT_WRITE                         00000002
OBF                               00000006
OERR                              00000001
OPTION_REG                        00000081
ORTA.B                            00000028
ORTA.C                            00000029
P                                 00000004
PCFG0                             00000000
PCFG1                             00000001
PCFG2                             00000002
PCFG3                             00000003
PCL                               00000002
PCLATH                            0000000A
PCON                              0000008E
MPASM 5.84                        HAFTA2.ASM   11-5-2019  1:19:26         PAGE 17


SYMBOL TABLE
  LABEL                             VALUE 

PEIE                              00000006
PEN                               00000002
PIE1                              0000008C
PIE2                              0000008D
PIR1                              0000000C
PIR2                              0000000D
PORTA                             00000005
PORTB                             00000006
PORTC                             00000007
PORTD                             00000008
PORTE                             00000009
PR2                               00000092
PS0                               00000000
PS1                               00000001
PS2                               00000002
PSA                               00000003
PSPIE                             00000007
PSPIF                             00000007
PSPMODE                           00000004
R                                 00000002
RA0                               00000000
RA1                               00000001
RA2                               00000002
RA3                               00000003
RA4                               00000004
RA5                               00000005
RB0                               00000000
RB1                               00000001
RB2                               00000002
RB3                               00000003
RB4                               00000004
RB5                               00000005
RB6                               00000006
RB7                               00000007
RBIE                              00000003
RBIF                              00000000
RC0                               00000000
RC1                               00000001
RC2                               00000002
RC3                               00000003
RC4                               00000004
RC5                               00000005
RC6                               00000006
RC7                               00000007
RC8_9                             00000006
RC9                               00000006
RCD8                              00000000
RCEN                              00000003
RCIE                              00000005
RCIF                              00000005
RCREG                             0000001A
RCSTA                             00000018
RD                                00000000
MPASM 5.84                        HAFTA2.ASM   11-5-2019  1:19:26         PAGE 18


SYMBOL TABLE
  LABEL                             VALUE 

RD0                               00000000
RD1                               00000001
RD2                               00000002
RD3                               00000003
RD4                               00000004
RD5                               00000005
RD6                               00000006
RD7                               00000007
RE0                               00000000
RE1                               00000001
RE2                               00000002
READ_WRITE                        00000002
RP0                               00000005
RP1                               00000006
RSEN                              00000001
RX9                               00000006
RX9D                              00000000
R_NOT_W                           00000002
R_W                               00000002
S                                 00000003
SAGA                              0000014C
SECME                             00000025
SEN                               00000000
SMP                               00000007
SOLA                              00000191
SON.B                             00000030
SON.C                             00000031
SPBRG                             00000099
SPEN                              00000007
SREN                              00000005
SSPADD                            00000093
SSPBUF                            00000013
SSPCON                            00000014
SSPCON2                           00000091
SSPEN                             00000005
SSPIE                             00000003
SSPIF                             00000003
SSPM0                             00000000
SSPM1                             00000001
SSPM2                             00000002
SSPM3                             00000003
SSPOV                             00000006
SSPSTAT                           00000094
STATUS                            00000003
SYNC                              00000004
T0CS                              00000005
T0IE                              00000005
T0IF                              00000002
T0SE                              00000004
T1CKPS0                           00000004
T1CKPS1                           00000005
T1CON                             00000010
T1INSYNC                          00000002
MPASM 5.84                        HAFTA2.ASM   11-5-2019  1:19:26         PAGE 19


SYMBOL TABLE
  LABEL                             VALUE 

T1OSCEN                           00000003
T1SYNC                            00000002
T2CKPS0                           00000000
T2CKPS1                           00000001
T2CON                             00000012
TMR0                              00000001
TMR0IE                            00000005
TMR0IF                            00000002
TMR1                              0000000E
TMR1CS                            00000001
TMR1H                             0000000F
TMR1IE                            00000000
TMR1IF                            00000000
TMR1L                             0000000E
TMR1ON                            00000000
TMR2                              00000011
TMR2IE                            00000001
TMR2IF                            00000001
TMR2ON                            00000002
TOUTPS0                           00000003
TOUTPS1                           00000004
TOUTPS2                           00000005
TOUTPS3                           00000006
TRISA                             00000085
TRISA0                            00000000
TRISA1                            00000001
TRISA2                            00000002
TRISA3                            00000003
TRISA4                            00000004
TRISA5                            00000005
TRISB                             00000086
TRISB0                            00000000
TRISB1                            00000001
TRISB2                            00000002
TRISB3                            00000003
TRISB4                            00000004
TRISB5                            00000005
TRISB6                            00000006
TRISB7                            00000007
TRISC                             00000087
TRISC0                            00000000
TRISC1                            00000001
TRISC2                            00000002
TRISC3                            00000003
TRISC4                            00000004
TRISC5                            00000005
TRISC6                            00000006
TRISC7                            00000007
TRISD                             00000088
TRISD0                            00000000
TRISD1                            00000001
TRISD2                            00000002
TRISD3                            00000003
MPASM 5.84                        HAFTA2.ASM   11-5-2019  1:19:26         PAGE 20


SYMBOL TABLE
  LABEL                             VALUE 

TRISD4                            00000004
TRISD5                            00000005
TRISD6                            00000006
TRISD7                            00000007
TRISE                             00000089
TRISE0                            00000000
TRISE1                            00000001
TRISE2                            00000002
TRMT                              00000001
TX8_9                             00000006
TX9                               00000006
TX9D                              00000000
TXD8                              00000000
TXEN                              00000005
TXIE                              00000004
TXIF                              00000004
TXREG                             00000019
TXSTA                             00000098
UA                                00000001
W                                 00000000
WCOL                              00000007
WR                                00000001
WREN                              00000002
WRERR                             00000003
YUKARI                            0000017A
Z                                 00000002
_.org_0_0009                      00000009
_.org_0_000B                      0000000B
_.org_0_0017                      00000017
_.org_0_001E                      0000001E
_.org_0_0020                      00000020
_.org_0_0022                      00000022
_.org_0_0025                      00000025
_.org_0_0027                      00000027
_.org_0_0029                      00000029
_.org_0_002C                      0000002C
_.org_0_002E                      0000002E
_.org_0_0030                      00000030
_.org_0_0033                      00000033
_.org_0_0035                      00000035
_.org_0_0037                      00000037
_.org_0_003A                      0000003A
_.org_0_003C                      0000003C
_.org_0_003E                      0000003E
_.org_0_0041                      00000041
_.org_0_0043                      00000043
_.org_0_0045                      00000045
_.org_0_0048                      00000048
_.org_0_004A                      0000004A
_.org_0_004C                      0000004C
_.org_0_0050                      00000050
_.org_0_0052                      00000052
_.org_0_0054                      00000054
MPASM 5.84                        HAFTA2.ASM   11-5-2019  1:19:26         PAGE 21


SYMBOL TABLE
  LABEL                             VALUE 

_.org_0_0057                      00000057
_.org_0_0059                      00000059
_.org_0_005B                      0000005B
_.org_0_005E                      0000005E
_.org_0_0060                      00000060
_.org_0_0062                      00000062
_.org_0_0065                      00000065
_.org_0_0067                      00000067
_.org_0_0069                      00000069
_.org_0_006C                      0000006C
_.org_0_006E                      0000006E
_.org_0_0070                      00000070
_.org_0_0074                      00000074
_.org_0_0076                      00000076
_.org_0_0078                      00000078
_.org_0_007B                      0000007B
_.org_0_007D                      0000007D
_.org_0_007F                      0000007F
_.org_0_0082                      00000082
_.org_0_0084                      00000084
_.org_0_0086                      00000086
_.org_0_0089                      00000089
_.org_0_008B                      0000008B
_.org_0_008D                      0000008D
_.org_0_0090                      00000090
_.org_0_0092                      00000092
_.org_0_0094                      00000094
_.org_0_0097                      00000097
_.org_0_0099                      00000099
_.org_0_009B                      0000009B
_.org_0_009E                      0000009E
_.org_0_00A0                      000000A0
_.org_0_00A2                      000000A2
_.org_0_00A6                      000000A6
_.org_0_00A8                      000000A8
_.org_0_00AA                      000000AA
_.org_0_00AD                      000000AD
_.org_0_00AF                      000000AF
_.org_0_00B1                      000000B1
_.org_0_00B4                      000000B4
_.org_0_00B6                      000000B6
_.org_0_00B8                      000000B8
_.org_0_00BB                      000000BB
_.org_0_00BD                      000000BD
_.org_0_00BF                      000000BF
_.org_0_00C2                      000000C2
_.org_0_00C4                      000000C4
_.org_0_00C6                      000000C6
_.org_0_00C9                      000000C9
_.org_0_00CB                      000000CB
_.org_0_00CD                      000000CD
_.org_0_00D0                      000000D0
_.org_0_00D2                      000000D2
MPASM 5.84                        HAFTA2.ASM   11-5-2019  1:19:26         PAGE 22


SYMBOL TABLE
  LABEL                             VALUE 

_.org_0_00D4                      000000D4
_.org_0_0101                      00000101
_.org_0_0103                      00000103
_.org_0_0105                      00000105
_.org_0_010A                      0000010A
_.org_0_010C                      0000010C
_.org_0_010E                      0000010E
_.org_0_0114                      00000114
_.org_0_0116                      00000116
_.org_0_0118                      00000118
_.org_0_011D                      0000011D
_.org_0_011F                      0000011F
_.org_0_0121                      00000121
_BODEN_OFF                        00003FBF
_BODEN_ON                         00003FFF
_BOREN_OFF                        00003FBF
_BOREN_ON                         00003FFF
_CONFIG                           00002007
_CPD_OFF                          00003FFF
_CPD_ON                           00003EFF
_CP_ALL                           00001FFF
_CP_OFF                           00003FFF
_CP_ON                            00001FFF
_DEBUG_OFF                        00003FFF
_DEBUG_ON                         000037FF
_DEVID1                           00002006
_FOSC_EXTRC                       00003FFF
_FOSC_HS                          00003FFE
_FOSC_LP                          00003FFC
_FOSC_XT                          00003FFD
_HS_OSC                           00003FFE
_IDLOC0                           00002000
_IDLOC1                           00002001
_IDLOC2                           00002002
_IDLOC3                           00002003
_LP_OSC                           00003FFC
_LVP_OFF                          00003F7F
_LVP_ON                           00003FFF
_PWRTE_OFF                        00003FFF
_PWRTE_ON                         00003FF7
_RC_OSC                           00003FFF
_WDTE_OFF                         00003FFB
_WDTE_ON                          00003FFF
_WDT_OFF                          00003FFB
_WDT_ON                           00003FFF
_WRT_1FOURTH                      00003BFF
_WRT_256                          00003DFF
_WRT_HALF                         000039FF
_WRT_OFF                          00003FFF
_XT_OSC                           00003FFD
__16F877A                         00000001

MPASM 5.84                        HAFTA2.ASM   11-5-2019  1:19:26         PAGE 23





Errors   :     0
Warnings :    15 reported,     0 suppressed
Messages :     4 reported,     0 suppressed

